target datalayout = "e-m:e-p270:32:32-p271:32:32-p272:64:64-i64:64-i128:128-f80:128-n8:16:32:64-S128"
target triple = "x86_64-pc-linux-gnu"

%struct.dt_pthread_mutex_t = type { %union.pthread_mutex_t }
%union.pthread_mutex_t = type { %struct.__pthread_mutex_s }
%struct.__pthread_mutex_s = type { i32, i32, i32, i32, i32, i16, i16, %struct.__pthread_internal_list }
%struct.__pthread_internal_list = type { ptr, ptr }
%struct._dt_progress_t = type { double, ptr, i32, %struct.dt_pthread_mutex_t, ptr, ptr, ptr }

; Function Attrs: inlinehint nounwind uwtable
define internal i32 @dt_pthread_mutex_unlock(ptr noundef %0) #4 {
  %2 = alloca ptr, align 8
  store ptr %0, ptr %2, align 8, !tbaa !87
  %3 = load ptr, ptr %2, align 8, !tbaa !87
  %4 = getelementptr inbounds nuw %struct.dt_pthread_mutex_t, ptr %3, i32 0, i32 0
  %5 = call i32 @pthread_mutex_unlock(ptr noundef %4) #6
  ret i32 %5
}

; Function Attrs: inlinehint nounwind uwtable
define internal i32 @dt_pthread_mutex_lock(ptr noundef %0) #4 {
  %2 = alloca ptr, align 8
  store ptr %0, ptr %2, align 8, !tbaa !87
  %3 = load ptr, ptr %2, align 8, !tbaa !87
  %4 = getelementptr inbounds nuw %struct.dt_pthread_mutex_t, ptr %3, i32 0, i32 0
  %5 = call i32 @pthread_mutex_lock(ptr noundef %4) #6
  ret i32 %5
}

; Function Attrs: nounwind uwtable
define i32 @dt_control_progress_cancellable(ptr noundef %0) #0 {
  %2 = alloca ptr, align 8
  %3 = alloca i32, align 4
  store ptr %0, ptr %2, align 8, !tbaa !62
  %4 = load ptr, ptr %2, align 8, !tbaa !62
  %5 = getelementptr inbounds nuw %struct._dt_progress_t, ptr %4, i32 0, i32 3
  %6 = call i32 @dt_pthread_mutex_lock(ptr noundef %5)
  call void @llvm.lifetime.start.p0(i64 4, ptr %3) #6
  %7 = load ptr, ptr %2, align 8, !tbaa !62
  %8 = getelementptr inbounds nuw %struct._dt_progress_t, ptr %7, i32 0, i32 5
  %9 = load ptr, ptr %8, align 8, !tbaa !98
  %10 = icmp ne ptr %9, null
  %11 = zext i1 %10 to i32
  store i32 %11, ptr %3, align 4, !tbaa !60
  %12 = load ptr, ptr %2, align 8, !tbaa !62
  %13 = getelementptr inbounds nuw %struct._dt_progress_t, ptr %12, i32 0, i32 3
  %14 = call i32 @dt_pthread_mutex_unlock(ptr noundef %13)
  %15 = load i32, ptr %3, align 4, !tbaa !60
  call void @llvm.lifetime.end.p0(i64 4, ptr %3) #6
  ret i32 %15
}