; Function Attrs: nounwind uwtable
define range(i32 0, 2) i32 @dt_control_progress_cancellable(ptr noundef %0) local_unnamed_addr #0 {
  %2 = getelementptr inbounds nuw i8, ptr %0, i64 24
  %3 = tail call i32 @pthread_mutex_lock(ptr noundef nonnull %2) #6
  %4 = getelementptr inbounds nuw i8, ptr %0, i64 72
  %5 = load ptr, ptr %4, align 8, !tbaa !86
  %6 = icmp ne ptr %5, null
  %7 = zext i1 %6 to i32
  %8 = tail call i32 @pthread_mutex_unlock(ptr noundef nonnull %2) #6
  ret i32 %7
}